target datalayout = "e-m:e-p270:32:32-p271:32:32-p272:64:64-i64:64-i128:128-f80:128-n8:16:32:64-S128"
target triple = "x86_64-pc-linux-gnu"

%struct.Cbs0_Par_t_ = type { i32, i32, i32, i32, i32, i32, i32, i32, i32, i32 }
%struct.Cbs0_Man_t_ = type { %struct.Cbs0_Par_t_, ptr, %struct.Cbs0_Que_t_, %struct.Cbs0_Que_t_, ptr, i32, i32, i32, i32, i32, i32, i32, i64, i64, i64, i64 }
%struct.Cbs0_Que_t_ = type { i32, i32, i32, ptr }
%struct.Vec_Int_t_ = type { i32, i32, ptr }

; Function Attrs: nounwind uwtable
define void @Cbs0_SetDefaultParams(ptr noundef %0) #0 {
  %2 = alloca ptr, align 8
  store ptr %0, ptr %2, align 8, !tbaa !3
  %3 = load ptr, ptr %2, align 8, !tbaa !3
  call void @llvm.memset.p0.i64(ptr align 4 %3, i8 0, i64 40, i1 false)
  %4 = load ptr, ptr %2, align 8, !tbaa !3
  %5 = getelementptr inbounds nuw %struct.Cbs0_Par_t_, ptr %4, i32 0, i32 0
  store i32 1000, ptr %5, align 4, !tbaa !8
  %6 = load ptr, ptr %2, align 8, !tbaa !3
  %7 = getelementptr inbounds nuw %struct.Cbs0_Par_t_, ptr %6, i32 0, i32 1
  store i32 100, ptr %7, align 4, !tbaa !11
  %8 = load ptr, ptr %2, align 8, !tbaa !3
  %9 = getelementptr inbounds nuw %struct.Cbs0_Par_t_, ptr %8, i32 0, i32 6
  store i32 1, ptr %9, align 4, !tbaa !12
  %10 = load ptr, ptr %2, align 8, !tbaa !3
  %11 = getelementptr inbounds nuw %struct.Cbs0_Par_t_, ptr %10, i32 0, i32 7
  store i32 0, ptr %11, align 4, !tbaa !13
  %12 = load ptr, ptr %2, align 8, !tbaa !3
  %13 = getelementptr inbounds nuw %struct.Cbs0_Par_t_, ptr %12, i32 0, i32 8
  store i32 0, ptr %13, align 4, !tbaa !14
  %14 = load ptr, ptr %2, align 8, !tbaa !3
  %15 = getelementptr inbounds nuw %struct.Cbs0_Par_t_, ptr %14, i32 0, i32 9
  store i32 1, ptr %15, align 4, !tbaa !15
  ret void
}

; Function Attrs: inlinehint nounwind uwtable
define internal ptr @Vec_IntAlloc(i32 noundef %0) #5 {
  %2 = alloca i32, align 4
  %3 = alloca ptr, align 8
  store i32 %0, ptr %2, align 4, !tbaa !29
  call void @llvm.lifetime.start.p0(i64 8, ptr %3) #11
  %4 = call noalias ptr @malloc(i64 noundef 16) #13
  store ptr %4, ptr %3, align 8, !tbaa !30
  %5 = load i32, ptr %2, align 4, !tbaa !29
  %6 = icmp sgt i32 %5, 0
  br i1 %6, label %7, label %11

7:                                                ; preds = %1
  %8 = load i32, ptr %2, align 4, !tbaa !29
  %9 = icmp slt i32 %8, 16
  br i1 %9, label %10, label %11

10:                                               ; preds = %7
  store i32 16, ptr %2, align 4, !tbaa !29
  br label %11

11:                                               ; preds = %10, %7, %1
  %12 = load ptr, ptr %3, align 8, !tbaa !30
  %13 = getelementptr inbounds nuw %struct.Vec_Int_t_, ptr %12, i32 0, i32 1
  store i32 0, ptr %13, align 4, !tbaa !31
  %14 = load i32, ptr %2, align 4, !tbaa !29
  %15 = load ptr, ptr %3, align 8, !tbaa !30
  %16 = getelementptr inbounds nuw %struct.Vec_Int_t_, ptr %15, i32 0, i32 0
  store i32 %14, ptr %16, align 8, !tbaa !34
  %17 = load ptr, ptr %3, align 8, !tbaa !30
  %18 = getelementptr inbounds nuw %struct.Vec_Int_t_, ptr %17, i32 0, i32 0
  %19 = load i32, ptr %18, align 8, !tbaa !34
  %20 = icmp ne i32 %19, 0
  br i1 %20, label %21, label %28

21:                                               ; preds = %11
  %22 = load ptr, ptr %3, align 8, !tbaa !30
  %23 = getelementptr inbounds nuw %struct.Vec_Int_t_, ptr %22, i32 0, i32 0
  %24 = load i32, ptr %23, align 8, !tbaa !34
  %25 = sext i32 %24 to i64
  %26 = mul i64 4, %25
  %27 = call noalias ptr @malloc(i64 noundef %26) #13
  br label %29

28:                                               ; preds = %11
  br label %29

29:                                               ; preds = %28, %21
  %30 = phi ptr [ %27, %21 ], [ null, %28 ]
  %31 = load ptr, ptr %3, align 8, !tbaa !30
  %32 = getelementptr inbounds nuw %struct.Vec_Int_t_, ptr %31, i32 0, i32 2
  store ptr %30, ptr %32, align 8, !tbaa !35
  %33 = load ptr, ptr %3, align 8, !tbaa !30
  call void @llvm.lifetime.end.p0(i64 8, ptr %3) #11
  ret ptr %33
}

; Function Attrs: nounwind uwtable
define ptr @Cbs0_ManAlloc() #0 {
  %1 = alloca ptr, align 8
  call void @llvm.lifetime.start.p0(i64 8, ptr %1) #11
  %2 = call noalias ptr @calloc(i64 noundef 1, i64 noundef 168) #12
  store ptr %2, ptr %1, align 8, !tbaa !16
  %3 = load ptr, ptr %1, align 8, !tbaa !16
  %4 = getelementptr inbounds nuw %struct.Cbs0_Man_t_, ptr %3, i32 0, i32 3
  %5 = getelementptr inbounds nuw %struct.Cbs0_Que_t_, ptr %4, i32 0, i32 2
  store i32 10000, ptr %5, align 8, !tbaa !18
  %6 = load ptr, ptr %1, align 8, !tbaa !16
  %7 = getelementptr inbounds nuw %struct.Cbs0_Man_t_, ptr %6, i32 0, i32 2
  %8 = getelementptr inbounds nuw %struct.Cbs0_Que_t_, ptr %7, i32 0, i32 2
  store i32 10000, ptr %8, align 8, !tbaa !25
  %9 = load ptr, ptr %1, align 8, !tbaa !16
  %10 = getelementptr inbounds nuw %struct.Cbs0_Man_t_, ptr %9, i32 0, i32 2
  %11 = getelementptr inbounds nuw %struct.Cbs0_Que_t_, ptr %10, i32 0, i32 2
  %12 = load i32, ptr %11, align 8, !tbaa !25
  %13 = sext i32 %12 to i64
  %14 = mul i64 8, %13
  %15 = call noalias ptr @malloc(i64 noundef %14) #13
  %16 = load ptr, ptr %1, align 8, !tbaa !16
  %17 = getelementptr inbounds nuw %struct.Cbs0_Man_t_, ptr %16, i32 0, i32 2
  %18 = getelementptr inbounds nuw %struct.Cbs0_Que_t_, ptr %17, i32 0, i32 3
  store ptr %15, ptr %18, align 8, !tbaa !26
  %19 = load ptr, ptr %1, align 8, !tbaa !16
  %20 = getelementptr inbounds nuw %struct.Cbs0_Man_t_, ptr %19, i32 0, i32 3
  %21 = getelementptr inbounds nuw %struct.Cbs0_Que_t_, ptr %20, i32 0, i32 2
  %22 = load i32, ptr %21, align 8, !tbaa !18
  %23 = sext i32 %22 to i64
  %24 = mul i64 8, %23
  %25 = call noalias ptr @malloc(i64 noundef %24) #13
  %26 = load ptr, ptr %1, align 8, !tbaa !16
  %27 = getelementptr inbounds nuw %struct.Cbs0_Man_t_, ptr %26, i32 0, i32 3
  %28 = getelementptr inbounds nuw %struct.Cbs0_Que_t_, ptr %27, i32 0, i32 3
  store ptr %25, ptr %28, align 8, !tbaa !27
  %29 = call ptr @Vec_IntAlloc(i32 noundef 1000)
  %30 = load ptr, ptr %1, align 8, !tbaa !16
  %31 = getelementptr inbounds nuw %struct.Cbs0_Man_t_, ptr %30, i32 0, i32 4
  store ptr %29, ptr %31, align 8, !tbaa !28
  %32 = load ptr, ptr %1, align 8, !tbaa !16
  %33 = getelementptr inbounds nuw %struct.Cbs0_Man_t_, ptr %32, i32 0, i32 0
  call void @Cbs0_SetDefaultParams(ptr noundef %33)
  %34 = load ptr, ptr %1, align 8, !tbaa !16
  call void @llvm.lifetime.end.p0(i64 8, ptr %1) #11
  ret ptr %34
}