; Function Attrs: mustprogress nofree nounwind willreturn memory(write, argmem: none, inaccessiblemem: readwrite) uwtable
define noalias noundef ptr @Cbs0_ManAlloc() local_unnamed_addr #2 {
  %1 = tail call noalias dereferenceable_or_null(168) ptr @calloc(i64 noundef 1, i64 noundef 168) #20
  %2 = getelementptr inbounds nuw i8, ptr %1, i64 80
  store i32 10000, ptr %2, align 8, !tbaa !13
  %3 = getelementptr inbounds nuw i8, ptr %1, i64 56
  store i32 10000, ptr %3, align 8, !tbaa !21
  %4 = tail call noalias dereferenceable_or_null(80000) ptr @malloc(i64 noundef 80000) #21
  %5 = getelementptr inbounds nuw i8, ptr %1, i64 64
  store ptr %4, ptr %5, align 8, !tbaa !22
  %6 = tail call noalias dereferenceable_or_null(80000) ptr @malloc(i64 noundef 80000) #21
  %7 = getelementptr inbounds nuw i8, ptr %1, i64 88
  store ptr %6, ptr %7, align 8, !tbaa !23
  %8 = tail call noalias dereferenceable_or_null(16) ptr @malloc(i64 noundef 16) #21
  %9 = getelementptr inbounds nuw i8, ptr %8, i64 4
  store i32 0, ptr %9, align 4, !tbaa !24
  store i32 1000, ptr %8, align 8, !tbaa !27
  %10 = tail call noalias dereferenceable_or_null(4000) ptr @malloc(i64 noundef 4000) #21
  %11 = getelementptr inbounds nuw i8, ptr %8, i64 8
  store ptr %10, ptr %11, align 8, !tbaa !28
  %12 = getelementptr inbounds nuw i8, ptr %1, i64 96
  store ptr %8, ptr %12, align 8, !tbaa !29
  store i32 1000, ptr %1, align 4, !tbaa !3
  %13 = getelementptr inbounds nuw i8, ptr %1, i64 4
  store i32 100, ptr %13, align 4, !tbaa !8
  %14 = getelementptr inbounds nuw i8, ptr %1, i64 24
  store i32 1, ptr %14, align 4, !tbaa !9
  %15 = getelementptr inbounds nuw i8, ptr %1, i64 36
  store i32 1, ptr %15, align 4, !tbaa !12
  ret ptr %1
}